
Practica1.elf:     file format elf32-littlearm

Sections:
Idx Name          Size      VMA       LMA       File off  Algn
  0 .bss          000000b0  0c000000  0c000000  00008000  2**2
                  ALLOC
  1 .text         00000444  0c0000b0  0c0000b0  000000b0  2**2
                  CONTENTS, ALLOC, LOAD, READONLY, CODE
  2 .ARM.attributes 0000002e  00000000  00000000  000004f4  2**0
                  CONTENTS, READONLY
  3 .comment      0000002a  00000000  00000000  00000522  2**0
                  CONTENTS, READONLY
  4 .debug_line   000004c8  00000000  00000000  0000054c  2**0
                  CONTENTS, READONLY, DEBUGGING
  5 .debug_info   000003b1  00000000  00000000  00000a14  2**0
                  CONTENTS, READONLY, DEBUGGING
  6 .debug_abbrev 00000193  00000000  00000000  00000dc5  2**0
                  CONTENTS, READONLY, DEBUGGING
  7 .debug_aranges 000000a0  00000000  00000000  00000f58  2**3
                  CONTENTS, READONLY, DEBUGGING
  8 .debug_macinfo 00006ca4  00000000  00000000  00000ff8  2**0
                  CONTENTS, READONLY, DEBUGGING
  9 .debug_loc    00000084  00000000  00000000  00007c9c  2**0
                  CONTENTS, READONLY, DEBUGGING
 10 .debug_pubnames 0000008e  00000000  00000000  00007d20  2**0
                  CONTENTS, READONLY, DEBUGGING
 11 .debug_pubtypes 00000042  00000000  00000000  00007dae  2**0
                  CONTENTS, READONLY, DEBUGGING
 12 .debug_str    0000011e  00000000  00000000  00007df0  2**0
                  CONTENTS, READONLY, DEBUGGING
 13 .debug_frame  00000080  00000000  00000000  00007f10  2**2
                  CONTENTS, READONLY, DEBUGGING

Disassembly of section .text:

0c0000b0 <start>:
    .extern main
    .extern _stack
	.global start

start:
    ldr sp,=_stack
 c0000b0:	e59fd008 	ldr	sp, [pc, #8]	; c0000c0 <End+0x4>
    mov fp,#0
 c0000b4:	e3a0b000 	mov	fp, #0

    bl main
 c0000b8:	eb00006a 	bl	c000268 <main>

0c0000bc <End>:

End:
    B End
 c0000bc:	eafffffe 	b	c0000bc <End>
 c0000c0:	0c7ff000 	.word	0x0c7ff000

0c0000c4 <initRGB>:
pixelRGB imagenRGB[N*M];
unsigned char imagenGris[N*M];
unsigned char imagenBinaria[N*M];
short int unosPorFila[N];

void initRGB(pixelRGB m[], int nfilas, int ncols) {
 c0000c4:	e1a0c00d 	mov	ip, sp
 c0000c8:	e92dd800 	push	{fp, ip, lr, pc}
 c0000cc:	e24cb004 	sub	fp, ip, #4
 c0000d0:	e24dd018 	sub	sp, sp, #24
 c0000d4:	e50b0018 	str	r0, [fp, #-24]	; 0xffffffe8
 c0000d8:	e50b101c 	str	r1, [fp, #-28]	; 0xffffffe4
 c0000dc:	e50b2020 	str	r2, [fp, #-32]	; 0xffffffe0

    int i,j;
    
    for (i=0;i<nfilas;i++)
 c0000e0:	e3a03000 	mov	r3, #0
 c0000e4:	e50b3010 	str	r3, [fp, #-16]
 c0000e8:	ea000057 	b	c00024c <initRGB+0x188>
        for (j=0; j<ncols; j++) {
 c0000ec:	e3a03000 	mov	r3, #0
 c0000f0:	e50b3014 	str	r3, [fp, #-20]	; 0xffffffec
 c0000f4:	ea00004d 	b	c000230 <initRGB+0x16c>
            m[i*ncols+j].R = (i+j)*FACTOR;
 c0000f8:	e51b3010 	ldr	r3, [fp, #-16]
 c0000fc:	e51b2020 	ldr	r2, [fp, #-32]	; 0xffffffe0
 c000100:	e0020293 	mul	r2, r3, r2
 c000104:	e51b3014 	ldr	r3, [fp, #-20]	; 0xffffffec
 c000108:	e0823003 	add	r3, r2, r3
 c00010c:	e1a02003 	mov	r2, r3
 c000110:	e1a03002 	mov	r3, r2
 c000114:	e1a03083 	lsl	r3, r3, #1
 c000118:	e0833002 	add	r3, r3, r2
 c00011c:	e51b2018 	ldr	r2, [fp, #-24]	; 0xffffffe8
 c000120:	e0822003 	add	r2, r2, r3
 c000124:	e51b1010 	ldr	r1, [fp, #-16]
 c000128:	e51b3014 	ldr	r3, [fp, #-20]	; 0xffffffec
 c00012c:	e0813003 	add	r3, r1, r3
 c000130:	e20330ff 	and	r3, r3, #255	; 0xff
 c000134:	e1a01003 	mov	r1, r3
 c000138:	e1a01101 	lsl	r1, r1, #2
 c00013c:	e0813003 	add	r3, r1, r3
 c000140:	e1a01003 	mov	r1, r3
 c000144:	e1a00101 	lsl	r0, r1, #2
 c000148:	e1a01003 	mov	r1, r3
 c00014c:	e1a03000 	mov	r3, r0
 c000150:	e0813003 	add	r3, r1, r3
 c000154:	e20330ff 	and	r3, r3, #255	; 0xff
 c000158:	e5c23000 	strb	r3, [r2]
            m[i*ncols+j].G = (i+j)*FACTOR;
 c00015c:	e51b3010 	ldr	r3, [fp, #-16]
 c000160:	e51b2020 	ldr	r2, [fp, #-32]	; 0xffffffe0
 c000164:	e0020293 	mul	r2, r3, r2
 c000168:	e51b3014 	ldr	r3, [fp, #-20]	; 0xffffffec
 c00016c:	e0823003 	add	r3, r2, r3
 c000170:	e1a02003 	mov	r2, r3
 c000174:	e1a03002 	mov	r3, r2
 c000178:	e1a03083 	lsl	r3, r3, #1
 c00017c:	e0833002 	add	r3, r3, r2
 c000180:	e51b2018 	ldr	r2, [fp, #-24]	; 0xffffffe8
 c000184:	e0822003 	add	r2, r2, r3
 c000188:	e51b1010 	ldr	r1, [fp, #-16]
 c00018c:	e51b3014 	ldr	r3, [fp, #-20]	; 0xffffffec
 c000190:	e0813003 	add	r3, r1, r3
 c000194:	e20330ff 	and	r3, r3, #255	; 0xff
 c000198:	e1a01003 	mov	r1, r3
 c00019c:	e1a01101 	lsl	r1, r1, #2
 c0001a0:	e0813003 	add	r3, r1, r3
 c0001a4:	e1a01003 	mov	r1, r3
 c0001a8:	e1a00101 	lsl	r0, r1, #2
 c0001ac:	e1a01003 	mov	r1, r3
 c0001b0:	e1a03000 	mov	r3, r0
 c0001b4:	e0813003 	add	r3, r1, r3
 c0001b8:	e20330ff 	and	r3, r3, #255	; 0xff
 c0001bc:	e5c23001 	strb	r3, [r2, #1]
            m[i*ncols+j].B = (i+j)*FACTOR;
 c0001c0:	e51b3010 	ldr	r3, [fp, #-16]
 c0001c4:	e51b2020 	ldr	r2, [fp, #-32]	; 0xffffffe0
 c0001c8:	e0020293 	mul	r2, r3, r2
 c0001cc:	e51b3014 	ldr	r3, [fp, #-20]	; 0xffffffec
 c0001d0:	e0823003 	add	r3, r2, r3
 c0001d4:	e1a02003 	mov	r2, r3
 c0001d8:	e1a03002 	mov	r3, r2
 c0001dc:	e1a03083 	lsl	r3, r3, #1
 c0001e0:	e0833002 	add	r3, r3, r2
 c0001e4:	e51b2018 	ldr	r2, [fp, #-24]	; 0xffffffe8
 c0001e8:	e0822003 	add	r2, r2, r3
 c0001ec:	e51b1010 	ldr	r1, [fp, #-16]
 c0001f0:	e51b3014 	ldr	r3, [fp, #-20]	; 0xffffffec
 c0001f4:	e0813003 	add	r3, r1, r3
 c0001f8:	e20330ff 	and	r3, r3, #255	; 0xff
 c0001fc:	e1a01003 	mov	r1, r3
 c000200:	e1a01101 	lsl	r1, r1, #2
 c000204:	e0813003 	add	r3, r1, r3
 c000208:	e1a01003 	mov	r1, r3
 c00020c:	e1a00101 	lsl	r0, r1, #2
 c000210:	e1a01003 	mov	r1, r3
 c000214:	e1a03000 	mov	r3, r0
 c000218:	e0813003 	add	r3, r1, r3
 c00021c:	e20330ff 	and	r3, r3, #255	; 0xff
 c000220:	e5c23002 	strb	r3, [r2, #2]
void initRGB(pixelRGB m[], int nfilas, int ncols) {

    int i,j;
    
    for (i=0;i<nfilas;i++)
        for (j=0; j<ncols; j++) {
 c000224:	e51b3014 	ldr	r3, [fp, #-20]	; 0xffffffec
 c000228:	e2833001 	add	r3, r3, #1
 c00022c:	e50b3014 	str	r3, [fp, #-20]	; 0xffffffec
 c000230:	e51b2014 	ldr	r2, [fp, #-20]	; 0xffffffec
 c000234:	e51b3020 	ldr	r3, [fp, #-32]	; 0xffffffe0
 c000238:	e1520003 	cmp	r2, r3
 c00023c:	baffffad 	blt	c0000f8 <initRGB+0x34>

void initRGB(pixelRGB m[], int nfilas, int ncols) {

    int i,j;
    
    for (i=0;i<nfilas;i++)
 c000240:	e51b3010 	ldr	r3, [fp, #-16]
 c000244:	e2833001 	add	r3, r3, #1
 c000248:	e50b3010 	str	r3, [fp, #-16]
 c00024c:	e51b2010 	ldr	r2, [fp, #-16]
 c000250:	e51b301c 	ldr	r3, [fp, #-28]	; 0xffffffe4
 c000254:	e1520003 	cmp	r2, r3
 c000258:	baffffa3 	blt	c0000ec <initRGB+0x28>
        for (j=0; j<ncols; j++) {
            m[i*ncols+j].R = (i+j)*FACTOR;
            m[i*ncols+j].G = (i+j)*FACTOR;
            m[i*ncols+j].B = (i+j)*FACTOR;
        }
}
 c00025c:	e24bd00c 	sub	sp, fp, #12
 c000260:	e89d6800 	ldm	sp, {fp, sp, lr}
 c000264:	e12fff1e 	bx	lr

0c000268 <main>:



int main() {
 c000268:	e1a0c00d 	mov	ip, sp
 c00026c:	e92dd800 	push	{fp, ip, lr, pc}
 c000270:	e24cb004 	sub	fp, ip, #4
 c000274:	e24dd008 	sub	sp, sp, #8
    initRGB(imagenRGB,N,M);
 c000278:	e59f0060 	ldr	r0, [pc, #96]	; c0002e0 <main+0x78>
 c00027c:	e3a01008 	mov	r1, #8
 c000280:	e3a02004 	mov	r2, #4
 c000284:	ebffff8e 	bl	c0000c4 <initRGB>
    RGB2GrayMatrix(imagenRGB,imagenGris,N,M);
 c000288:	e59f0050 	ldr	r0, [pc, #80]	; c0002e0 <main+0x78>
 c00028c:	e59f1050 	ldr	r1, [pc, #80]	; c0002e4 <main+0x7c>
 c000290:	e3a02008 	mov	r2, #8
 c000294:	e3a03004 	mov	r3, #4
 c000298:	eb000049 	bl	c0003c4 <RGB2GrayMatrix>
    Gray2BinaryMatrix(imagenGris,imagenBinaria,127,N,M);
 c00029c:	e3a03004 	mov	r3, #4
 c0002a0:	e58d3000 	str	r3, [sp]
 c0002a4:	e59f0038 	ldr	r0, [pc, #56]	; c0002e4 <main+0x7c>
 c0002a8:	e59f1038 	ldr	r1, [pc, #56]	; c0002e8 <main+0x80>
 c0002ac:	e3a0207f 	mov	r2, #127	; 0x7f
 c0002b0:	e3a03008 	mov	r3, #8
 c0002b4:	eb000050 	bl	c0003fc <Gray2BinaryMatrix>
    contarUnos(imagenBinaria,unosPorFila,N,M);
 c0002b8:	e59f0028 	ldr	r0, [pc, #40]	; c0002e8 <main+0x80>
 c0002bc:	e59f1028 	ldr	r1, [pc, #40]	; c0002ec <main+0x84>
 c0002c0:	e3a02008 	mov	r2, #8
 c0002c4:	e3a03004 	mov	r3, #4
 c0002c8:	eb000008 	bl	c0002f0 <contarUnos>
    return 0;
 c0002cc:	e3a03000 	mov	r3, #0
}
 c0002d0:	e1a00003 	mov	r0, r3
 c0002d4:	e24bd00c 	sub	sp, fp, #12
 c0002d8:	e89d6800 	ldm	sp, {fp, sp, lr}
 c0002dc:	e12fff1e 	bx	lr
 c0002e0:	0c000000 	.word	0x0c000000
 c0002e4:	0c000090 	.word	0x0c000090
 c0002e8:	0c000060 	.word	0x0c000060
 c0002ec:	0c000080 	.word	0x0c000080

0c0002f0 <contarUnos>:
		@En r0 tenemos la direccion de la imagen binaria
		@En r1 tenemos la direccion de unosPorFila
		@En r2 tenemos nfilas
		@En r3 tenemos ncols

		PUSH { r4, r5, r6, r7, r8, lr}
 c0002f0:	e92d41f0 	push	{r4, r5, r6, r7, r8, lr}

		mov r4, #0	@En r4 tenemos la i
 c0002f4:	e3a04000 	mov	r4, #0

0c0002f8 <buclei>:

buclei:	cmp  r4, r2		@i = nfilas?
 c0002f8:	e1540002 	cmp	r4, r2
		beq endBuclei
 c0002fc:	0a00000f 	beq	c000340 <endBuclei>
		mov r5, #0	@En r5 tenemos la j
 c000300:	e3a05000 	mov	r5, #0

0c000304 <buclej>:
buclej:
		cmp r3, r5		@j = ncols?
 c000304:	e1530005 	cmp	r3, r5
		beq endBuclej
 c000308:	0a00000a 	beq	c000338 <endBuclej>

		@i*ncols
		mul r6, r4, r3
 c00030c:	e0060394 	mul	r6, r4, r3
		@i*ncols+j
		add r6, r6, r5
 c000310:	e0866005 	add	r6, r6, r5
		@imagenBinaria[i*ncols + j]
		ldrb r7, [r0, r6]
 c000314:	e7d07006 	ldrb	r7, [r0, r6]
		cmp  r7, #0
 c000318:	e3570000 	cmp	r7, #0
		beq noHayUno
 c00031c:	0a000003 	beq	c000330 <noHayUno>
		@imagenBinaria[i*ncols + j] = 1
		@unosPorFila[i]++
		@Como es short int, debemos avanzar de dos bytes en dos
		add r7, r4, r4
 c000320:	e0847004 	add	r7, r4, r4
		ldrh r8, [r1, r7]
 c000324:	e19180b7 	ldrh	r8, [r1, r7]
		add r8, r8, #UNO
 c000328:	e2888001 	add	r8, r8, #1
		strh r8, [r1, r7]
 c00032c:	e18180b7 	strh	r8, [r1, r7]

0c000330 <noHayUno>:

noHayUno:
		add r5, r5, #UNO	@j = j + 1
 c000330:	e2855001 	add	r5, r5, #1
		b buclej
 c000334:	eafffff2 	b	c000304 <buclej>

0c000338 <endBuclej>:
endBuclej:
		add r4, r4, #UNO	@i = i + 1
 c000338:	e2844001 	add	r4, r4, #1
		b buclei
 c00033c:	eaffffed 	b	c0002f8 <buclei>

0c000340 <endBuclei>:
endBuclei:

		pop {r4, r5, r6, r7, r8, lr}
 c000340:	e8bd41f0 	pop	{r4, r5, r6, r7, r8, lr}
		bx lr		
 c000344:	e12fff1e 	bx	lr

0c000348 <ROJO>:
 c000348:	0000084e 	.word	0x0000084e

0c00034c <VERDE>:
 c00034c:	00001bf0 	.word	0x00001bf0

0c000350 <AZUL>:
 c000350:	000002d2 	.word	0x000002d2

0c000354 <rgb2gray>:

	.text

	rgb2gray:

		push { r4, r5, r6, r7, r8, lr}
 c000354:	e92d41f0 	push	{r4, r5, r6, r7, r8, lr}

		ldrb r1, [r0]
 c000358:	e5d01000 	ldrb	r1, [r0]
		ldrb r2, [r0, #1]
 c00035c:	e5d02001 	ldrb	r2, [r0, #1]
		ldrb r3, [r0, #2]
 c000360:	e5d03002 	ldrb	r3, [r0, #2]


		ldr r8, =ROJO
 c000364:	e59f8048 	ldr	r8, [pc, #72]	; c0003b4 <div10000+0x18>
		ldr r7, [r8]
 c000368:	e5987000 	ldr	r7, [r8]
		mul r4, r7, r1
 c00036c:	e0040197 	mul	r4, r7, r1

		ldr r8, =VERDE
 c000370:	e59f8040 	ldr	r8, [pc, #64]	; c0003b8 <div10000+0x1c>
		ldr r7, [r8]
 c000374:	e5987000 	ldr	r7, [r8]
		mul r5, r7, r2
 c000378:	e0050297 	mul	r5, r7, r2

		ldr r8, =AZUL
 c00037c:	e59f8038 	ldr	r8, [pc, #56]	; c0003bc <div10000+0x20>
		ldr r7, [r8]
 c000380:	e5987000 	ldr	r7, [r8]
		mul r6, r7, r3
 c000384:	e0060397 	mul	r6, r7, r3

		add r0, r4, r5
 c000388:	e0840005 	add	r0, r4, r5
		add r0, r0, r6
 c00038c:	e0800006 	add	r0, r0, r6

		bl div10000
 c000390:	eb000001 	bl	c00039c <div10000>

		pop {r4, r5, r6, r7, r8, lr}
 c000394:	e8bd41f0 	pop	{r4, r5, r6, r7, r8, lr}
		bx lr
 c000398:	e12fff1e 	bx	lr

0c00039c <div10000>:

	div10000:
		push {fp}
 c00039c:	e52db004 	push	{fp}		; (str fp, [sp, #-4]!)
		LDR     R1, =0xD1B71758
 c0003a0:	e59f1018 	ldr	r1, [pc, #24]	; c0003c0 <div10000+0x24>
		UMULL   R3, R2, R0, R1
 c0003a4:	e0823190 	umull	r3, r2, r0, r1
		MOV     R0, R2,LSR#13
 c0003a8:	e1a006a2 	lsr	r0, r2, #13
 		pop {fp}
 c0003ac:	e49db004 	pop	{fp}		; (ldr fp, [sp], #4)
 		bx lr
 c0003b0:	e12fff1e 	bx	lr
 c0003b4:	0c000348 	.word	0x0c000348
 c0003b8:	0c00034c 	.word	0x0c00034c
 c0003bc:	0c000350 	.word	0x0c000350
 c0003c0:	d1b71758 	.word	0xd1b71758

0c0003c4 <RGB2GrayMatrix>:
		@En r0 tenemos la direccion de la matriz rgb
		@En r1 tenemos la direccion de la matriz de grises
		@En r2 tenemos nfilas
		@En r3 tenemos ncols

		PUSH {lr}
 c0003c4:	e52de004 	push	{lr}		; (str lr, [sp, #-4]!)

		mul r2, r3, r2			@En r2 tenemos nfilas*ncols := N
 c0003c8:	e0020293 	mul	r2, r3, r2
		add r2, r1, r2 			@Ahora en r2 ponemos el margen final: destino_final:= destino + N
 c0003cc:	e0812002 	add	r2, r1, r2

0c0003d0 <buclei>:

buclei:	cmp  r1, r2				@destino_actual = destino_final?
 c0003d0:	e1510002 	cmp	r1, r2
		beq endBuclei
 c0003d4:	0a000007 	beq	c0003f8 <endBuclei>

		PUSH {r0, r1, r2}		@Guardamos los registros por si algún chino los toca luego en la subrutina
 c0003d8:	e92d0007 	push	{r0, r1, r2}
		bl rgb2gray				@Llamamos a la subrutina
 c0003dc:	ebffffdc 	bl	c000354 <rgb2gray>

		mov r0, r3				@El valor devuelto se pasa a r3 para mantenerlo
 c0003e0:	e1a00003 	mov	r0, r3
		POP {r0, r1, r2}		@Recuperamos los valores anteriores a la llamada
 c0003e4:	e8bd0007 	pop	{r0, r1, r2}

		strb r3, [r1]			@dest[] = rgb2Gray()
 c0003e8:	e5c13000 	strb	r3, [r1]

		add r0, r0, #4			@orig := orig + 4
 c0003ec:	e2800004 	add	r0, r0, #4
		add r1, r1, #1			@destino := destino + 1
 c0003f0:	e2811001 	add	r1, r1, #1
		b buclei
 c0003f4:	eafffff5 	b	c0003d0 <buclei>

0c0003f8 <endBuclei>:

endBuclei:

		pop {pc}
 c0003f8:	e49df004 	pop	{pc}		; (ldr pc, [sp], #4)

0c0003fc <Gray2BinaryMatrix>:
			dest[i*ncols+j] = rgb2gray(orig + (i*ncols+j));
    
}*/

void Gray2BinaryMatrix(unsigned char orig[], unsigned char dest[],
		unsigned char umbral, int nfilas, int ncols) {
 c0003fc:	e1a0c00d 	mov	ip, sp
 c000400:	e92dd800 	push	{fp, ip, lr, pc}
 c000404:	e24cb004 	sub	fp, ip, #4
 c000408:	e24dd018 	sub	sp, sp, #24
 c00040c:	e50b0018 	str	r0, [fp, #-24]	; 0xffffffe8
 c000410:	e50b101c 	str	r1, [fp, #-28]	; 0xffffffe4
 c000414:	e50b3024 	str	r3, [fp, #-36]	; 0xffffffdc
 c000418:	e1a03002 	mov	r3, r2
 c00041c:	e54b301d 	strb	r3, [fp, #-29]	; 0xffffffe3
	int i,j;
	// umbral será una variable o constante de nuestro código
	for (i = 0; i < nfilas; i++) {
 c000420:	e3a03000 	mov	r3, #0
 c000424:	e50b3010 	str	r3, [fp, #-16]
 c000428:	ea00002a 	b	c0004d8 <Gray2BinaryMatrix+0xdc>
		for (j = 0; j < ncols; j++) {
 c00042c:	e3a03000 	mov	r3, #0
 c000430:	e50b3014 	str	r3, [fp, #-20]	; 0xffffffec
 c000434:	ea000020 	b	c0004bc <Gray2BinaryMatrix+0xc0>
			if (orig[i*ncols + j] > umbral)
 c000438:	e51b3010 	ldr	r3, [fp, #-16]
 c00043c:	e59b2004 	ldr	r2, [fp, #4]
 c000440:	e0020293 	mul	r2, r3, r2
 c000444:	e51b3014 	ldr	r3, [fp, #-20]	; 0xffffffec
 c000448:	e0823003 	add	r3, r2, r3
 c00044c:	e51b2018 	ldr	r2, [fp, #-24]	; 0xffffffe8
 c000450:	e0823003 	add	r3, r2, r3
 c000454:	e5d33000 	ldrb	r3, [r3]
 c000458:	e55b201d 	ldrb	r2, [fp, #-29]	; 0xffffffe3
 c00045c:	e1520003 	cmp	r2, r3
 c000460:	2a000009 	bcs	c00048c <Gray2BinaryMatrix+0x90>
				dest[i*ncols + j] = 1;
 c000464:	e51b3010 	ldr	r3, [fp, #-16]
 c000468:	e59b2004 	ldr	r2, [fp, #4]
 c00046c:	e0020293 	mul	r2, r3, r2
 c000470:	e51b3014 	ldr	r3, [fp, #-20]	; 0xffffffec
 c000474:	e0823003 	add	r3, r2, r3
 c000478:	e51b201c 	ldr	r2, [fp, #-28]	; 0xffffffe4
 c00047c:	e0823003 	add	r3, r2, r3
 c000480:	e3a02001 	mov	r2, #1
 c000484:	e5c32000 	strb	r2, [r3]
 c000488:	ea000008 	b	c0004b0 <Gray2BinaryMatrix+0xb4>
			else
				dest[i*ncols + j] = 0;
 c00048c:	e51b3010 	ldr	r3, [fp, #-16]
 c000490:	e59b2004 	ldr	r2, [fp, #4]
 c000494:	e0020293 	mul	r2, r3, r2
 c000498:	e51b3014 	ldr	r3, [fp, #-20]	; 0xffffffec
 c00049c:	e0823003 	add	r3, r2, r3
 c0004a0:	e51b201c 	ldr	r2, [fp, #-28]	; 0xffffffe4
 c0004a4:	e0823003 	add	r3, r2, r3
 c0004a8:	e3a02000 	mov	r2, #0
 c0004ac:	e5c32000 	strb	r2, [r3]
void Gray2BinaryMatrix(unsigned char orig[], unsigned char dest[],
		unsigned char umbral, int nfilas, int ncols) {
	int i,j;
	// umbral será una variable o constante de nuestro código
	for (i = 0; i < nfilas; i++) {
		for (j = 0; j < ncols; j++) {
 c0004b0:	e51b3014 	ldr	r3, [fp, #-20]	; 0xffffffec
 c0004b4:	e2833001 	add	r3, r3, #1
 c0004b8:	e50b3014 	str	r3, [fp, #-20]	; 0xffffffec
 c0004bc:	e51b2014 	ldr	r2, [fp, #-20]	; 0xffffffec
 c0004c0:	e59b3004 	ldr	r3, [fp, #4]
 c0004c4:	e1520003 	cmp	r2, r3
 c0004c8:	baffffda 	blt	c000438 <Gray2BinaryMatrix+0x3c>

void Gray2BinaryMatrix(unsigned char orig[], unsigned char dest[],
		unsigned char umbral, int nfilas, int ncols) {
	int i,j;
	// umbral será una variable o constante de nuestro código
	for (i = 0; i < nfilas; i++) {
 c0004cc:	e51b3010 	ldr	r3, [fp, #-16]
 c0004d0:	e2833001 	add	r3, r3, #1
 c0004d4:	e50b3010 	str	r3, [fp, #-16]
 c0004d8:	e51b2010 	ldr	r2, [fp, #-16]
 c0004dc:	e51b3024 	ldr	r3, [fp, #-36]	; 0xffffffdc
 c0004e0:	e1520003 	cmp	r2, r3
 c0004e4:	baffffd0 	blt	c00042c <Gray2BinaryMatrix+0x30>
			else
				dest[i*ncols + j] = 0;
		}
	}
    
}
 c0004e8:	e24bd00c 	sub	sp, fp, #12
 c0004ec:	e89d6800 	ldm	sp, {fp, sp, lr}
 c0004f0:	e12fff1e 	bx	lr
