   1              		.cpu arm7tdmi
   2              		.fpu softvfp
   3              		.eabi_attribute 20, 1
   4              		.eabi_attribute 21, 1
   5              		.eabi_attribute 23, 3
   6              		.eabi_attribute 24, 1
   7              		.eabi_attribute 25, 1
   8              		.eabi_attribute 26, 1
   9              		.eabi_attribute 30, 6
  10              		.eabi_attribute 18, 4
  11              		.file	"trafo.c"
  21              	.Ltext0:
  22              		.file 1 "../trafo.c"
 981              		.align	2
 982              		.global	Gray2BinaryMatrix
 984              	Gray2BinaryMatrix:
 985              	.LFB0:
   1:../trafo.c    **** #include "trafo.h"
   2:../trafo.c    **** #include "types.h"
   3:../trafo.c    **** 
   4:../trafo.c    **** 
   5:../trafo.c    **** extern unsigned char rgb2gray(pixelRGB* pixel);
   6:../trafo.c    **** 
   7:../trafo.c    **** 
   8:../trafo.c    ****  /*{
   9:../trafo.c    ****     int i, j;
  10:../trafo.c    **** 	for (i = 0; i < nfilas; i++)
  11:../trafo.c    **** 		for (j = 0; j < ncols; j++)
  12:../trafo.c    **** 			dest[i*ncols+j] = rgb2gray(orig + (i*ncols+j));
  13:../trafo.c    ****     
  14:../trafo.c    **** }*/
  15:../trafo.c    **** 
  16:../trafo.c    **** void Gray2BinaryMatrix(unsigned char orig[], unsigned char dest[],
  17:../trafo.c    **** 		unsigned char umbral, int nfilas, int ncols) {
 986              		.loc 1 17 0
 987              		.cfi_startproc
 988              		@ Function supports interworking.
 989              		@ args = 4, pretend = 0, frame = 24
 990              		@ frame_needed = 1, uses_anonymous_args = 0
 991 0000 0DC0A0E1 		mov	ip, sp
 992              	.LCFI0:
 993              		.cfi_def_cfa_register 12
 994 0004 00D82DE9 		stmfd	sp!, {fp, ip, lr, pc}
 995 0008 04B04CE2 		sub	fp, ip, #4
 996              		.cfi_offset 14, -8
 997              		.cfi_offset 13, -12
 998              		.cfi_offset 11, -16
 999              	.LCFI1:
 1000              		.cfi_def_cfa 11, 4
 1001 000c 18D04DE2 		sub	sp, sp, #24
 1002 0010 18000BE5 		str	r0, [fp, #-24]
 1003 0014 1C100BE5 		str	r1, [fp, #-28]
 1004 0018 24300BE5 		str	r3, [fp, #-36]
 1005 001c 0230A0E1 		mov	r3, r2
 1006 0020 1D304BE5 		strb	r3, [fp, #-29]
  18:../trafo.c    **** 	int i,j;
  19:../trafo.c    **** 	// umbral será una variable o constante de nuestro código
  20:../trafo.c    **** 	for (i = 0; i < nfilas; i++) {
 1007              		.loc 1 20 0
 1008 0024 0030A0E3 		mov	r3, #0
 1009 0028 10300BE5 		str	r3, [fp, #-16]
 1010 002c 2A0000EA 		b	.L2
 1011              	.L7:
  21:../trafo.c    **** 		for (j = 0; j < ncols; j++) {
 1012              		.loc 1 21 0
 1013 0030 0030A0E3 		mov	r3, #0
 1014 0034 14300BE5 		str	r3, [fp, #-20]
 1015 0038 200000EA 		b	.L3
 1016              	.L6:
  22:../trafo.c    **** 			if (orig[i*ncols + j] > umbral)
 1017              		.loc 1 22 0
 1018 003c 10301BE5 		ldr	r3, [fp, #-16]
 1019 0040 04209BE5 		ldr	r2, [fp, #4]
 1020 0044 930202E0 		mul	r2, r3, r2
 1021 0048 14301BE5 		ldr	r3, [fp, #-20]
 1022 004c 033082E0 		add	r3, r2, r3
 1023 0050 18201BE5 		ldr	r2, [fp, #-24]
 1024 0054 033082E0 		add	r3, r2, r3
 1025 0058 0030D3E5 		ldrb	r3, [r3, #0]	@ zero_extendqisi2
 1026 005c 1D205BE5 		ldrb	r2, [fp, #-29]	@ zero_extendqisi2
 1027 0060 030052E1 		cmp	r2, r3
 1028 0064 0900002A 		bcs	.L4
  23:../trafo.c    **** 				dest[i*ncols + j] = 1;
 1029              		.loc 1 23 0
 1030 0068 10301BE5 		ldr	r3, [fp, #-16]
 1031 006c 04209BE5 		ldr	r2, [fp, #4]
 1032 0070 930202E0 		mul	r2, r3, r2
 1033 0074 14301BE5 		ldr	r3, [fp, #-20]
 1034 0078 033082E0 		add	r3, r2, r3
 1035 007c 1C201BE5 		ldr	r2, [fp, #-28]
 1036 0080 033082E0 		add	r3, r2, r3
 1037 0084 0120A0E3 		mov	r2, #1
 1038 0088 0020C3E5 		strb	r2, [r3, #0]
 1039 008c 080000EA 		b	.L5
 1040              	.L4:
  24:../trafo.c    **** 			else
  25:../trafo.c    **** 				dest[i*ncols + j] = 0;
 1041              		.loc 1 25 0
 1042 0090 10301BE5 		ldr	r3, [fp, #-16]
 1043 0094 04209BE5 		ldr	r2, [fp, #4]
 1044 0098 930202E0 		mul	r2, r3, r2
 1045 009c 14301BE5 		ldr	r3, [fp, #-20]
 1046 00a0 033082E0 		add	r3, r2, r3
 1047 00a4 1C201BE5 		ldr	r2, [fp, #-28]
 1048 00a8 033082E0 		add	r3, r2, r3
 1049 00ac 0020A0E3 		mov	r2, #0
 1050 00b0 0020C3E5 		strb	r2, [r3, #0]
 1051              	.L5:
  21:../trafo.c    **** 		for (j = 0; j < ncols; j++) {
 1052              		.loc 1 21 0
 1053 00b4 14301BE5 		ldr	r3, [fp, #-20]
 1054 00b8 013083E2 		add	r3, r3, #1
 1055 00bc 14300BE5 		str	r3, [fp, #-20]
 1056              	.L3:
  21:../trafo.c    **** 		for (j = 0; j < ncols; j++) {
 1057              		.loc 1 21 0 is_stmt 0 discriminator 1
 1058 00c0 14201BE5 		ldr	r2, [fp, #-20]
 1059 00c4 04309BE5 		ldr	r3, [fp, #4]
 1060 00c8 030052E1 		cmp	r2, r3
 1061 00cc DAFFFFBA 		blt	.L6
  20:../trafo.c    **** 	for (i = 0; i < nfilas; i++) {
 1062              		.loc 1 20 0 is_stmt 1
 1063 00d0 10301BE5 		ldr	r3, [fp, #-16]
 1064 00d4 013083E2 		add	r3, r3, #1
 1065 00d8 10300BE5 		str	r3, [fp, #-16]
 1066              	.L2:
  20:../trafo.c    **** 	for (i = 0; i < nfilas; i++) {
 1067              		.loc 1 20 0 is_stmt 0 discriminator 1
 1068 00dc 10201BE5 		ldr	r2, [fp, #-16]
 1069 00e0 24301BE5 		ldr	r3, [fp, #-36]
 1070 00e4 030052E1 		cmp	r2, r3
 1071 00e8 D0FFFFBA 		blt	.L7
  26:../trafo.c    **** 		}
  27:../trafo.c    **** 	}
  28:../trafo.c    ****     
  29:../trafo.c    **** }
 1072              		.loc 1 29 0 is_stmt 1
 1073 00ec 0CD04BE2 		sub	sp, fp, #12
 1074 00f0 00689DE8 		ldmfd	sp, {fp, sp, lr}
 1075 00f4 1EFF2FE1 		bx	lr
 1076              		.cfi_endproc
 1077              	.LFE0:
 1079              	.Letext0: