   1              		.cpu arm7tdmi
   2              		.fpu softvfp
   3              		.eabi_attribute 20, 1
   4              		.eabi_attribute 21, 1
   5              		.eabi_attribute 23, 3
   6              		.eabi_attribute 24, 1
   7              		.eabi_attribute 25, 1
   8              		.eabi_attribute 26, 1
   9              		.eabi_attribute 30, 6
  10              		.eabi_attribute 18, 4
  11              		.file	"timer.c"
  21              	.Ltext0:
  22              		.file 1 "../timer.c"
 1885              		.align	2
 1888              	posicion:
 1889 0000 00000000 		.space	4
 1890              		.global	modoT
 1891              		.align	2
 1894              	modoT:
 1895 0004 00000000 		.space	4
 1896              		.global	cuentaClave
 1897              		.align	2
 1900              	cuentaClave:
 1901 0008 00000000 		.space	4
 1902              		.global	cuentaIntento
 1903              		.align	2
 1906              	cuentaIntento:
 1907 000c 00000000 		.space	4
 1908              		.global	cuentaAcierto
 1909              		.align	2
 1912              	cuentaAcierto:
 1913 0010 00000000 		.space	4
 1914              		.text
 1915              		.align	2
 1916              		.global	timer_ISR
 1918              	timer_ISR:
 1919              	.LFB0:
   1:../timer.c    **** /*********************************************************************************************
   2:../timer.c    **** * Fichero:		timer.c
   3:../timer.c    **** * Autor:		
   4:../timer.c    **** * Descrip:		funciones de control del timer0 del s3c44b0x
   5:../timer.c    **** * Version:	
   6:../timer.c    **** *********************************************************************************************/
   7:../timer.c    **** 
   8:../timer.c    **** /*--- ficheros de cabecera ---*/
   9:../timer.c    **** #include "44b.h"
  10:../timer.c    **** #include "44blib.h"
  11:../timer.c    **** #include "buffer.h"
  12:../timer.c    **** #include "8seg.h"
  13:../timer.c    **** 
  14:../timer.c    **** int posicion = 0;
  15:../timer.c    **** int modoT = 0;
  16:../timer.c    **** int cuentaClave = 0;
  17:../timer.c    **** int cuentaIntento = 0;
  18:../timer.c    **** int cuentaAcierto = 0;
  19:../timer.c    **** // El 0 es modo mostrar clave, el 1 mostrar intento, el 2 mostrar acierto
  20:../timer.c    **** //*--- declaracion de funciones ---*/
  21:../timer.c    **** void timer_ISR(void) __attribute__ ((interrupt ("IRQ")));
  22:../timer.c    **** 
  23:../timer.c    **** 
  24:../timer.c    **** /*--- codigo de las funciones ---*/
  25:../timer.c    **** void timer_ISR(void)
  26:../timer.c    **** {  /*  TAREA 2a */
 1920              		.loc 1 26 0
 1921              		.cfi_startproc
 1922              		@ Interrupt Service Routine.
 1923              		@ args = 0, pretend = 0, frame = 0
 1924              		@ frame_needed = 1, uses_anonymous_args = 0
 1925 0000 04C02DE5 		str	ip, [sp, #-4]!
 1926 0004 0DC0A0E1 		mov	ip, sp
 1927              	.LCFI0:
 1928              		.cfi_def_cfa_register 12
 1929 0008 0FD82DE9 		stmfd	sp!, {r0, r1, r2, r3, fp, ip, lr, pc}
 1930 000c 04B04CE2 		sub	fp, ip, #4
 1931              		.cfi_offset 14, -8
 1932              		.cfi_offset 13, -12
 1933              		.cfi_offset 11, -16
 1934              		.cfi_offset 3, -20
 1935              		.cfi_offset 2, -24
 1936              		.cfi_offset 1, -28
 1937              		.cfi_offset 0, -32
 1938              	.LCFI1:
 1939              		.cfi_def_cfa 11, 4
  27:../timer.c    ****         /*Actualizar leds con cada int. del timer */
  28:../timer.c    **** 	leds_switch ();
 1940              		.loc 1 28 0
 1941 0010 FEFFFFEB 		bl	leds_switch
  29:../timer.c    **** 	if (modoT == 0){
 1942              		.loc 1 29 0
 1943 0014 30319FE5 		ldr	r3, .L7
 1944 0018 003093E5 		ldr	r3, [r3, #0]
 1945 001c 000053E3 		cmp	r3, #0
 1946 0020 1900001A 		bne	.L2
  30:../timer.c    **** 		cuentaClave++;
 1947              		.loc 1 30 0
 1948 0024 24319FE5 		ldr	r3, .L7+4
 1949 0028 003093E5 		ldr	r3, [r3, #0]
 1950 002c 012083E2 		add	r2, r3, #1
 1951 0030 18319FE5 		ldr	r3, .L7+4
 1952 0034 002083E5 		str	r2, [r3, #0]
  31:../timer.c    **** 		D8Led_symbol(leerClave(posicion));
 1953              		.loc 1 31 0
 1954 0038 14319FE5 		ldr	r3, .L7+8
 1955 003c 003093E5 		ldr	r3, [r3, #0]
 1956 0040 0300A0E1 		mov	r0, r3
 1957 0044 FEFFFFEB 		bl	leerClave
 1958 0048 0030A0E1 		mov	r3, r0
 1959 004c 0300A0E1 		mov	r0, r3
 1960 0050 FEFFFFEB 		bl	D8Led_symbol
  32:../timer.c    **** 		if (posicion == 3)
 1961              		.loc 1 32 0
 1962 0054 F8309FE5 		ldr	r3, .L7+8
 1963 0058 003093E5 		ldr	r3, [r3, #0]
 1964 005c 030053E3 		cmp	r3, #3
 1965 0060 0300001A 		bne	.L3
  33:../timer.c    **** 			posicion = 0;
 1966              		.loc 1 33 0
 1967 0064 E8309FE5 		ldr	r3, .L7+8
 1968 0068 0020A0E3 		mov	r2, #0
 1969 006c 002083E5 		str	r2, [r3, #0]
 1970 0070 2C0000EA 		b	.L4
 1971              	.L3:
  34:../timer.c    **** 		else
  35:../timer.c    **** 			posicion = posicion + 1;
 1972              		.loc 1 35 0
 1973 0074 D8309FE5 		ldr	r3, .L7+8
 1974 0078 003093E5 		ldr	r3, [r3, #0]
 1975 007c 012083E2 		add	r2, r3, #1
 1976 0080 CC309FE5 		ldr	r3, .L7+8
 1977 0084 002083E5 		str	r2, [r3, #0]
 1978 0088 260000EA 		b	.L4
 1979              	.L2:
  36:../timer.c    **** 	}else if(modoT == 1){
 1980              		.loc 1 36 0
 1981 008c B8309FE5 		ldr	r3, .L7
 1982 0090 003093E5 		ldr	r3, [r3, #0]
 1983 0094 010053E3 		cmp	r3, #1
 1984 0098 1900001A 		bne	.L5
  37:../timer.c    **** 		cuentaIntento++;
 1985              		.loc 1 37 0
 1986 009c B4309FE5 		ldr	r3, .L7+12
 1987 00a0 003093E5 		ldr	r3, [r3, #0]
 1988 00a4 012083E2 		add	r2, r3, #1
 1989 00a8 A8309FE5 		ldr	r3, .L7+12
 1990 00ac 002083E5 		str	r2, [r3, #0]
  38:../timer.c    **** 		D8Led_symbol(leerIntento(posicion));
 1991              		.loc 1 38 0
 1992 00b0 9C309FE5 		ldr	r3, .L7+8
 1993 00b4 003093E5 		ldr	r3, [r3, #0]
 1994 00b8 0300A0E1 		mov	r0, r3
 1995 00bc FEFFFFEB 		bl	leerIntento
 1996 00c0 0030A0E1 		mov	r3, r0
 1997 00c4 0300A0E1 		mov	r0, r3
 1998 00c8 FEFFFFEB 		bl	D8Led_symbol
  39:../timer.c    **** 		if (posicion == 3)
 1999              		.loc 1 39 0
 2000 00cc 80309FE5 		ldr	r3, .L7+8
 2001 00d0 003093E5 		ldr	r3, [r3, #0]
 2002 00d4 030053E3 		cmp	r3, #3
 2003 00d8 0300001A 		bne	.L6
  40:../timer.c    **** 			posicion = 0;
 2004              		.loc 1 40 0
 2005 00dc 70309FE5 		ldr	r3, .L7+8
 2006 00e0 0020A0E3 		mov	r2, #0
 2007 00e4 002083E5 		str	r2, [r3, #0]
 2008 00e8 0E0000EA 		b	.L4
 2009              	.L6:
  41:../timer.c    **** 		else
  42:../timer.c    **** 			posicion = posicion + 1;
 2010              		.loc 1 42 0
 2011 00ec 60309FE5 		ldr	r3, .L7+8
 2012 00f0 003093E5 		ldr	r3, [r3, #0]
 2013 00f4 012083E2 		add	r2, r3, #1
 2014 00f8 54309FE5 		ldr	r3, .L7+8
 2015 00fc 002083E5 		str	r2, [r3, #0]
 2016 0100 080000EA 		b	.L4
 2017              	.L5:
  43:../timer.c    **** 	}else if(modoT == 2)
 2018              		.loc 1 43 0
 2019 0104 40309FE5 		ldr	r3, .L7
 2020 0108 003093E5 		ldr	r3, [r3, #0]
 2021 010c 020053E3 		cmp	r3, #2
 2022 0110 0400001A 		bne	.L4
  44:../timer.c    **** 	{
  45:../timer.c    **** 		cuentaAcierto++;
 2023              		.loc 1 45 0
 2024 0114 40309FE5 		ldr	r3, .L7+16
 2025 0118 003093E5 		ldr	r3, [r3, #0]
 2026 011c 012083E2 		add	r2, r3, #1
 2027 0120 34309FE5 		ldr	r3, .L7+16
 2028 0124 002083E5 		str	r2, [r3, #0]
 2029              	.L4:
  46:../timer.c    **** 	}
  47:../timer.c    **** 
  48:../timer.c    **** 	/* borrar bit en I_ISPC */
  49:../timer.c    **** 	rI_ISPC |= BIT_TIMER1;
 2030              		.loc 1 49 0
 2031 0128 30309FE5 		ldr	r3, .L7+20
 2032 012c 2C209FE5 		ldr	r2, .L7+20
 2033 0130 002092E5 		ldr	r2, [r2, #0]
 2034 0134 012A82E3 		orr	r2, r2, #4096
 2035 0138 002083E5 		str	r2, [r3, #0]
  50:../timer.c    **** 	/*fin Tarea 2a*/
  51:../timer.c    **** 
  52:../timer.c    **** }
 2036              		.loc 1 52 0
 2037 013c 1CD04BE2 		sub	sp, fp, #28
 2038 0140 0F689DE8 		ldmfd	sp, {r0, r1, r2, r3, fp, sp, lr}
 2039 0144 04C09DE4 		ldmfd	sp!, {ip}
 2040 0148 04F05EE2 		subs	pc, lr, #4
 2041              	.L8:
 2042              		.align	2
 2043              	.L7:
 2044 014c 00000000 		.word	modoT
 2045 0150 00000000 		.word	cuentaClave
 2046 0154 00000000 		.word	posicion
 2047 0158 00000000 		.word	cuentaIntento
 2048 015c 00000000 		.word	cuentaAcierto
 2049 0160 2400E001 		.word	31457316
 2050              		.cfi_endproc
 2051              	.LFE0:
 2053              		.align	2
 2054              		.global	modoTimer
 2056              	modoTimer:
 2057              	.LFB1:
  53:../timer.c    **** 
  54:../timer.c    **** void modoTimer(int i){
 2058              		.loc 1 54 0
 2059              		.cfi_startproc
 2060              		@ Function supports interworking.
 2061              		@ args = 0, pretend = 0, frame = 8
 2062              		@ frame_needed = 1, uses_anonymous_args = 0
 2063 0164 0DC0A0E1 		mov	ip, sp
 2064              	.LCFI2:
 2065              		.cfi_def_cfa_register 12
 2066 0168 00D82DE9 		stmfd	sp!, {fp, ip, lr, pc}
 2067 016c 04B04CE2 		sub	fp, ip, #4
 2068              		.cfi_offset 14, -8
 2069              		.cfi_offset 13, -12
 2070              		.cfi_offset 11, -16
 2071              	.LCFI3:
 2072              		.cfi_def_cfa 11, 4
 2073 0170 08D04DE2 		sub	sp, sp, #8
 2074 0174 10000BE5 		str	r0, [fp, #-16]
  55:../timer.c    **** 	modoT = i;
 2075              		.loc 1 55 0
 2076 0178 10309FE5 		ldr	r3, .L10
 2077 017c 10201BE5 		ldr	r2, [fp, #-16]
 2078 0180 002083E5 		str	r2, [r3, #0]
  56:../timer.c    **** }
 2079              		.loc 1 56 0
 2080 0184 0CD04BE2 		sub	sp, fp, #12
 2081 0188 00689DE8 		ldmfd	sp, {fp, sp, lr}
 2082 018c 1EFF2FE1 		bx	lr
 2083              	.L11:
 2084              		.align	2
 2085              	.L10:
 2086 0190 00000000 		.word	modoT
 2087              		.cfi_endproc
 2088              	.LFE1:
 2090              	.Letext0: