   1              		.cpu arm7tdmi
   2              		.fpu softvfp
   3              		.eabi_attribute 20, 1
   4              		.eabi_attribute 21, 1
   5              		.eabi_attribute 23, 3
   6              		.eabi_attribute 24, 1
   7              		.eabi_attribute 25, 1
   8              		.eabi_attribute 26, 1
   9              		.eabi_attribute 30, 6
  10              		.eabi_attribute 18, 4
  11              		.file	"keyboard.c"
  21              	.Ltext0:
  22              		.file 1 "../keyboard.c"
 3051              		.align	2
 3054              	keyboard_base:
 3055 0000 00000006 		.word	100663296
 3056              		.comm	key,4,4
 3057              		.global	modo
 3058              		.align	2
 3061              	modo:
 3062 0004 01000000 		.word	1
 3063              		.text
 3064              		.align	2
 3065              		.global	EliminaRebotes
 3067              	EliminaRebotes:
 3068              	.LFB0:
   1:../keyboard.c **** /*******************************************************************************************
   2:../keyboard.c **** * File:		keyboard.c
   3:../keyboard.c **** * Author:	
   4:../keyboard.c **** * Desc:		Funciones de teclado
   5:../keyboard.c **** * History:	
   6:../keyboard.c **** *********************************************************************************************/
   7:../keyboard.c **** 
   8:../keyboard.c **** /*--- Ficheros de cabecera ---*/
   9:../keyboard.c **** #include "44b.h"
  10:../keyboard.c **** #include "44blib.h"
  11:../keyboard.c **** #include "def.h"
  12:../keyboard.c **** #include "keyboard.h"
  13:../keyboard.c **** #include "buffer.h"
  14:../keyboard.c **** #include "8seg.h"
  15:../keyboard.c **** #include <stdio.h>
  16:../keyboard.c **** #include <stdlib.h>
  17:../keyboard.c **** 
  18:../keyboard.c **** /*--- Variables globales ---*/
  19:../keyboard.c **** volatile UCHAR *keyboard_base = (UCHAR *)0x06000000;
  20:../keyboard.c **** int key;
  21:../keyboard.c **** int modo = 1;
  22:../keyboard.c **** 
  23:../keyboard.c **** void Eint1_ISR(void) __attribute__ ((interrupt ("IRQ")));
  24:../keyboard.c **** void init_keyboard(void);
  25:../keyboard.c **** void modoClave(int i);
  26:../keyboard.c **** int key_read();
  27:../keyboard.c **** /*--- Codigo de las funciones ---*/
  28:../keyboard.c **** 
  29:../keyboard.c **** void EliminaRebotes(void) {
 3069              		.loc 1 29 0
 3070              		.cfi_startproc
 3071              		@ Function supports interworking.
 3072              		@ args = 0, pretend = 0, frame = 16
 3073              		@ frame_needed = 1, uses_anonymous_args = 0
 3074 0000 0DC0A0E1 		mov	ip, sp
 3075              	.LCFI0:
 3076              		.cfi_def_cfa_register 12
 3077 0004 00D82DE9 		stmfd	sp!, {fp, ip, lr, pc}
 3078 0008 04B04CE2 		sub	fp, ip, #4
 3079              		.cfi_offset 14, -8
 3080              		.cfi_offset 13, -12
 3081              		.cfi_offset 11, -16
 3082              	.LCFI1:
 3083              		.cfi_def_cfa 11, 4
 3084 000c 10D04DE2 		sub	sp, sp, #16
  30:../keyboard.c **** 	int i,j,k;
  31:../keyboard.c **** 	i=200000;
 3085              		.loc 1 31 0
 3086 0010 44309FE5 		ldr	r3, .L4
 3087 0014 18300BE5 		str	r3, [fp, #-24]
  32:../keyboard.c **** 	j=0;
 3088              		.loc 1 32 0
 3089 0018 0030A0E3 		mov	r3, #0
 3090 001c 10300BE5 		str	r3, [fp, #-16]
  33:../keyboard.c **** 	while (j!=i){
 3091              		.loc 1 33 0
 3092 0020 060000EA 		b	.L2
 3093              	.L3:
  34:../keyboard.c **** 		k=k*j;
 3094              		.loc 1 34 0
 3095 0024 14301BE5 		ldr	r3, [fp, #-20]
 3096 0028 10201BE5 		ldr	r2, [fp, #-16]
 3097 002c 920303E0 		mul	r3, r2, r3
 3098 0030 14300BE5 		str	r3, [fp, #-20]
  35:../keyboard.c **** 		j+=1;
 3099              		.loc 1 35 0
 3100 0034 10301BE5 		ldr	r3, [fp, #-16]
 3101 0038 013083E2 		add	r3, r3, #1
 3102 003c 10300BE5 		str	r3, [fp, #-16]
 3103              	.L2:
  33:../keyboard.c **** 	while (j!=i){
 3104              		.loc 1 33 0 discriminator 1
 3105 0040 10201BE5 		ldr	r2, [fp, #-16]
 3106 0044 18301BE5 		ldr	r3, [fp, #-24]
 3107 0048 030052E1 		cmp	r2, r3
 3108 004c F4FFFF1A 		bne	.L3
  36:../keyboard.c **** 	}
  37:../keyboard.c **** }
 3109              		.loc 1 37 0
 3110 0050 0CD04BE2 		sub	sp, fp, #12
 3111 0054 00689DE8 		ldmfd	sp, {fp, sp, lr}
 3112 0058 1EFF2FE1 		bx	lr
 3113              	.L5:
 3114              		.align	2
 3115              	.L4:
 3116 005c 400D0300 		.word	200000
 3117              		.cfi_endproc
 3118              	.LFE0:
 3120              		.align	2
 3121              		.global	init_keyboard
 3123              	init_keyboard:
 3124              	.LFB1:
  38:../keyboard.c **** 
  39:../keyboard.c **** void init_keyboard()
  40:../keyboard.c **** {
 3125              		.loc 1 40 0
 3126              		.cfi_startproc
 3127              		@ Function supports interworking.
 3128              		@ args = 0, pretend = 0, frame = 0
 3129              		@ frame_needed = 1, uses_anonymous_args = 0
 3130 0060 0DC0A0E1 		mov	ip, sp
 3131              	.LCFI2:
 3132              		.cfi_def_cfa_register 12
 3133 0064 00D82DE9 		stmfd	sp!, {fp, ip, lr, pc}
 3134 0068 04B04CE2 		sub	fp, ip, #4
 3135              		.cfi_offset 14, -8
 3136              		.cfi_offset 13, -12
 3137              		.cfi_offset 11, -16
 3138              	.LCFI3:
 3139              		.cfi_def_cfa 11, 4
  41:../keyboard.c **** // A implementar por los alumnos
  42:../keyboard.c **** 	 //Configuracion del controlador de interrupciones
  43:../keyboard.c **** 		rI_ISPC=0xFFFFFFFF	;	   // Borra INTPND
 3140              		.loc 1 43 0
 3141 006c 9C309FE5 		ldr	r3, .L7
 3142 0070 0020E0E3 		mvn	r2, #0
 3143 0074 002083E5 		str	r2, [r3, #0]
  44:../keyboard.c **** 		rEXTINTPND = 0xf; 		   // Borra EXTINTPND
 3144              		.loc 1 44 0
 3145 0078 94309FE5 		ldr	r3, .L7+4
 3146 007c 0F20A0E3 		mov	r2, #15
 3147 0080 002083E5 		str	r2, [r3, #0]
  45:../keyboard.c **** 		rINTMOD=0x0;	   // Configura las lineas como de tipo IRQ mediante rINTMOD
 3148              		.loc 1 45 0
 3149 0084 8C309FE5 		ldr	r3, .L7+8
 3150 0088 0020A0E3 		mov	r2, #0
 3151 008c 002083E5 		str	r2, [r3, #0]
  46:../keyboard.c **** 		rINTCON  =0x1; // Habilita int. vectorizadas y la linea IRQ (FIQ no) mediante rINTCON
 3152              		.loc 1 46 0
 3153 0090 1E36A0E3 		mov	r3, #31457280
 3154 0094 0120A0E3 		mov	r2, #1
 3155 0098 002083E5 		str	r2, [r3, #0]
  47:../keyboard.c **** 			// Emascara todas las lineas excepto eint1y el bit global mediante rINTMSK
  48:../keyboard.c **** 		rINTMSK &= ~(BIT_GLOBAL|BIT_EINT1);
 3156              		.loc 1 48 0
 3157 009c 78309FE5 		ldr	r3, .L7+12
 3158 00a0 74209FE5 		ldr	r2, .L7+12
 3159 00a4 002092E5 		ldr	r2, [r2, #0]
 3160 00a8 0524C2E3 		bic	r2, r2, #83886080
 3161 00ac 002083E5 		str	r2, [r3, #0]
  49:../keyboard.c **** 		/*Establece la rutina de servicio para Eint1 */
  50:../keyboard.c **** 		pISR_EINT1 = (int)Eint1_ISR;
 3162              		.loc 1 50 0
 3163 00b0 68309FE5 		ldr	r3, .L7+16
 3164 00b4 68209FE5 		ldr	r2, .L7+20
 3165 00b8 002083E5 		str	r2, [r3, #0]
  51:../keyboard.c **** 	    /* Configuracion del puerto G */
  52:../keyboard.c **** 	    rPCONG  = 0xffff;        		// Establece la funcion de los pines (EINT0-7)
 3166              		.loc 1 52 0
 3167 00bc 64309FE5 		ldr	r3, .L7+24
 3168 00c0 64209FE5 		ldr	r2, .L7+28
 3169 00c4 002083E5 		str	r2, [r3, #0]
  53:../keyboard.c **** 		rPUPG   = 0x0;                  // Habilita el "pull up" del puerto
 3170              		.loc 1 53 0
 3171 00c8 60309FE5 		ldr	r3, .L7+32
 3172 00cc 0020A0E3 		mov	r2, #0
 3173 00d0 002083E5 		str	r2, [r3, #0]
  54:../keyboard.c **** 		rEXTINT = rEXTINT|0x22222222;   // Configura las lineas de int. como de flanco de bajada
 3174              		.loc 1 54 0
 3175 00d4 58209FE5 		ldr	r2, .L7+36
 3176 00d8 54309FE5 		ldr	r3, .L7+36
 3177 00dc 001093E5 		ldr	r1, [r3, #0]
 3178 00e0 50309FE5 		ldr	r3, .L7+40
 3179 00e4 033081E1 		orr	r3, r1, r3
 3180 00e8 003082E5 		str	r3, [r2, #0]
  55:../keyboard.c **** 
  56:../keyboard.c **** 	    /* Por precaucion, se vuelven a borrar los bits de INTPND y EXTINTPND */
  57:../keyboard.c **** 		rI_ISPC=0xFFFFFFFF	;	   // Borra INTPND
 3181              		.loc 1 57 0
 3182 00ec 1C309FE5 		ldr	r3, .L7
 3183 00f0 0020E0E3 		mvn	r2, #0
 3184 00f4 002083E5 		str	r2, [r3, #0]
  58:../keyboard.c **** 	 	rEXTINTPND = 0xf;	   // Borra EXTINTPND
 3185              		.loc 1 58 0
 3186 00f8 14309FE5 		ldr	r3, .L7+4
 3187 00fc 0F20A0E3 		mov	r2, #15
 3188 0100 002083E5 		str	r2, [r3, #0]
  59:../keyboard.c **** 
  60:../keyboard.c **** 
  61:../keyboard.c **** }
 3189              		.loc 1 61 0
 3190 0104 0CD04BE2 		sub	sp, fp, #12
 3191 0108 00689DE8 		ldmfd	sp, {fp, sp, lr}
 3192 010c 1EFF2FE1 		bx	lr
 3193              	.L8:
 3194              		.align	2
 3195              	.L7:
 3196 0110 2400E001 		.word	31457316
 3197 0114 5400D201 		.word	30539860
 3198 0118 0800E001 		.word	31457288
 3199 011c 0C00E001 		.word	31457292
 3200 0120 80FF7F0C 		.word	209715072
 3201 0124 00000000 		.word	Eint1_ISR
 3202 0128 4000D201 		.word	30539840
 3203 012c FFFF0000 		.word	65535
 3204 0130 4800D201 		.word	30539848
 3205 0134 5000D201 		.word	30539856
 3206 0138 22222222 		.word	572662306
 3207              		.cfi_endproc
 3208              	.LFE1:
 3210              		.align	2
 3211              		.global	Eint1_ISR
 3213              	Eint1_ISR:
 3214              	.LFB2:
  62:../keyboard.c **** void Eint1_ISR(){
 3215              		.loc 1 62 0
 3216              		.cfi_startproc
 3217              		@ Interrupt Service Routine.
 3218              		@ args = 0, pretend = 0, frame = 0
 3219              		@ frame_needed = 1, uses_anonymous_args = 0
 3220 013c 04C02DE5 		str	ip, [sp, #-4]!
 3221 0140 0DC0A0E1 		mov	ip, sp
 3222              	.LCFI4:
 3223              		.cfi_def_cfa_register 12
 3224 0144 0FD82DE9 		stmfd	sp!, {r0, r1, r2, r3, fp, ip, lr, pc}
 3225 0148 04B04CE2 		sub	fp, ip, #4
 3226              		.cfi_offset 14, -8
 3227              		.cfi_offset 13, -12
 3228              		.cfi_offset 11, -16
 3229              		.cfi_offset 3, -20
 3230              		.cfi_offset 2, -24
 3231              		.cfi_offset 1, -28
 3232              		.cfi_offset 0, -32
 3233              	.LCFI5:
 3234              		.cfi_def_cfa 11, 4
  63:../keyboard.c **** 	key = key_read();
 3235              		.loc 1 63 0
 3236 014c FEFFFFEB 		bl	key_read
 3237 0150 0020A0E1 		mov	r2, r0
 3238 0154 90309FE5 		ldr	r3, .L14
 3239 0158 002083E5 		str	r2, [r3, #0]
  64:../keyboard.c **** 	if (key == 15 || key == -1)
 3240              		.loc 1 64 0
 3241 015c 88309FE5 		ldr	r3, .L14
 3242 0160 003093E5 		ldr	r3, [r3, #0]
 3243 0164 0F0053E3 		cmp	r3, #15
 3244 0168 0300000A 		beq	.L10
 3245              		.loc 1 64 0 is_stmt 0 discriminator 1
 3246 016c 78309FE5 		ldr	r3, .L14
 3247 0170 003093E5 		ldr	r3, [r3, #0]
 3248 0174 010073E3 		cmn	r3, #1
 3249 0178 0100001A 		bne	.L11
 3250              	.L10:
  65:../keyboard.c **** 		EliminaRebotes();
 3251              		.loc 1 65 0 is_stmt 1
 3252 017c FEFFFFEB 		bl	EliminaRebotes
 3253 0180 0C0000EA 		b	.L12
 3254              	.L11:
  66:../keyboard.c **** 	else{
  67:../keyboard.c **** 		if (modo == 1)
 3255              		.loc 1 67 0
 3256 0184 64309FE5 		ldr	r3, .L14+4
 3257 0188 003093E5 		ldr	r3, [r3, #0]
 3258 018c 010053E3 		cmp	r3, #1
 3259 0190 0400001A 		bne	.L13
  68:../keyboard.c **** 			insertarClave(key);
 3260              		.loc 1 68 0
 3261 0194 50309FE5 		ldr	r3, .L14
 3262 0198 003093E5 		ldr	r3, [r3, #0]
 3263 019c 0300A0E1 		mov	r0, r3
 3264 01a0 FEFFFFEB 		bl	insertarClave
 3265 01a4 030000EA 		b	.L12
 3266              	.L13:
  69:../keyboard.c **** 		else
  70:../keyboard.c **** 			insertarIntento(key);
 3267              		.loc 1 70 0
 3268 01a8 3C309FE5 		ldr	r3, .L14
 3269 01ac 003093E5 		ldr	r3, [r3, #0]
 3270 01b0 0300A0E1 		mov	r0, r3
 3271 01b4 FEFFFFEB 		bl	insertarIntento
 3272              	.L12:
  71:../keyboard.c **** 	}
  72:../keyboard.c **** 
  73:../keyboard.c **** 	EliminaRebotes();
 3273              		.loc 1 73 0
 3274 01b8 FEFFFFEB 		bl	EliminaRebotes
  74:../keyboard.c **** 	rEXTINTPND = 0xf;				// borra los bits en EXTINTPND
 3275              		.loc 1 74 0
 3276 01bc 30309FE5 		ldr	r3, .L14+8
 3277 01c0 0F20A0E3 		mov	r2, #15
 3278 01c4 002083E5 		str	r2, [r3, #0]
  75:../keyboard.c **** 	rI_ISPC   |= BIT_EINT1;		// borra el bit pendiente en INTPND
 3279              		.loc 1 75 0
 3280 01c8 28309FE5 		ldr	r3, .L14+12
 3281 01cc 24209FE5 		ldr	r2, .L14+12
 3282 01d0 002092E5 		ldr	r2, [r2, #0]
 3283 01d4 012482E3 		orr	r2, r2, #16777216
 3284 01d8 002083E5 		str	r2, [r3, #0]
  76:../keyboard.c **** }
 3285              		.loc 1 76 0
 3286 01dc 1CD04BE2 		sub	sp, fp, #28
 3287 01e0 0F689DE8 		ldmfd	sp, {r0, r1, r2, r3, fp, sp, lr}
 3288 01e4 04C09DE4 		ldmfd	sp!, {ip}
 3289 01e8 04F05EE2 		subs	pc, lr, #4
 3290              	.L15:
 3291              		.align	2
 3292              	.L14:
 3293 01ec 00000000 		.word	key
 3294 01f0 00000000 		.word	modo
 3295 01f4 5400D201 		.word	30539860
 3296 01f8 2400E001 		.word	31457316
 3297              		.cfi_endproc
 3298              	.LFE2:
 3300              		.align	2
 3301              		.global	modoClave
 3303              	modoClave:
 3304              	.LFB3:
  77:../keyboard.c **** 
  78:../keyboard.c **** void modoClave(int i){
 3305              		.loc 1 78 0
 3306              		.cfi_startproc
 3307              		@ Function supports interworking.
 3308              		@ args = 0, pretend = 0, frame = 8
 3309              		@ frame_needed = 1, uses_anonymous_args = 0
 3310 01fc 0DC0A0E1 		mov	ip, sp
 3311              	.LCFI6:
 3312              		.cfi_def_cfa_register 12
 3313 0200 00D82DE9 		stmfd	sp!, {fp, ip, lr, pc}
 3314 0204 04B04CE2 		sub	fp, ip, #4
 3315              		.cfi_offset 14, -8
 3316              		.cfi_offset 13, -12
 3317              		.cfi_offset 11, -16
 3318              	.LCFI7:
 3319              		.cfi_def_cfa 11, 4
 3320 0208 08D04DE2 		sub	sp, sp, #8
 3321 020c 10000BE5 		str	r0, [fp, #-16]
  79:../keyboard.c **** 	modo = i;
 3322              		.loc 1 79 0
 3323 0210 10309FE5 		ldr	r3, .L17
 3324 0214 10201BE5 		ldr	r2, [fp, #-16]
 3325 0218 002083E5 		str	r2, [r3, #0]
  80:../keyboard.c **** }
 3326              		.loc 1 80 0
 3327 021c 0CD04BE2 		sub	sp, fp, #12
 3328 0220 00689DE8 		ldmfd	sp, {fp, sp, lr}
 3329 0224 1EFF2FE1 		bx	lr
 3330              	.L18:
 3331              		.align	2
 3332              	.L17:
 3333 0228 00000000 		.word	modo
 3334              		.cfi_endproc
 3335              	.LFE3:
 3337              		.align	2
 3338              		.global	key_read
 3340              	key_read:
 3341              	.LFB4:
  81:../keyboard.c **** // Funcion que devuelve un entero (0..15) que
  82:../keyboard.c **** // representa la tecla pulsada
  83:../keyboard.c **** // Debe invocarse desde la rutina de tratamiento de interrupci—n
  84:../keyboard.c **** int key_read()
  85:../keyboard.c **** {
 3342              		.loc 1 85 0
 3343              		.cfi_startproc
 3344              		@ Function supports interworking.
 3345              		@ args = 0, pretend = 0, frame = 8
 3346              		@ frame_needed = 1, uses_anonymous_args = 0
 3347 022c 0DC0A0E1 		mov	ip, sp
 3348              	.LCFI8:
 3349              		.cfi_def_cfa_register 12
 3350 0230 00D82DE9 		stmfd	sp!, {fp, ip, lr, pc}
 3351 0234 04B04CE2 		sub	fp, ip, #4
 3352              		.cfi_offset 14, -8
 3353              		.cfi_offset 13, -12
 3354              		.cfi_offset 11, -16
 3355              	.LCFI9:
 3356              		.cfi_def_cfa 11, 4
 3357 0238 08D04DE2 		sub	sp, sp, #8
  86:../keyboard.c **** 	int value;
  87:../keyboard.c **** 	char temp;
  88:../keyboard.c **** 	/* leer linea 1 */
  89:../keyboard.c **** 	temp = *(keyboard_base+0xfd);
 3358              		.loc 1 89 0
 3359 023c 6C329FE5 		ldr	r3, .L41
 3360 0240 003093E5 		ldr	r3, [r3, #0]
 3361 0244 FD3083E2 		add	r3, r3, #253
 3362 0248 0030D3E5 		ldrb	r3, [r3, #0]
 3363 024c 11304BE5 		strb	r3, [fp, #-17]
  90:../keyboard.c **** 	if(( temp & KEY_VALUE_MASK) != KEY_VALUE_MASK)
 3364              		.loc 1 90 0
 3365 0250 11305BE5 		ldrb	r3, [fp, #-17]	@ zero_extendqisi2
 3366 0254 0F3003E2 		and	r3, r3, #15
 3367 0258 0F0053E3 		cmp	r3, #15
 3368 025c 1C00000A 		beq	.L20
  91:../keyboard.c **** 	{
  92:../keyboard.c **** 		if( (temp&0x1) == 0 )
 3369              		.loc 1 92 0
 3370 0260 11305BE5 		ldrb	r3, [fp, #-17]	@ zero_extendqisi2
 3371 0264 013003E2 		and	r3, r3, #1
 3372 0268 000053E3 		cmp	r3, #0
 3373 026c 0200001A 		bne	.L21
  93:../keyboard.c **** 			value = 3;
 3374              		.loc 1 93 0
 3375 0270 0330A0E3 		mov	r3, #3
 3376 0274 10300BE5 		str	r3, [fp, #-16]
 3377 0278 130000EA 		b	.L22
 3378              	.L21:
  94:../keyboard.c **** 		else if( (temp&0x2) == 0 )
 3379              		.loc 1 94 0
 3380 027c 11305BE5 		ldrb	r3, [fp, #-17]	@ zero_extendqisi2
 3381 0280 023003E2 		and	r3, r3, #2
 3382 0284 000053E3 		cmp	r3, #0
 3383 0288 0200001A 		bne	.L23
  95:../keyboard.c **** 			value = 2;
 3384              		.loc 1 95 0
 3385 028c 0230A0E3 		mov	r3, #2
 3386 0290 10300BE5 		str	r3, [fp, #-16]
 3387 0294 0C0000EA 		b	.L22
 3388              	.L23:
  96:../keyboard.c **** 		else if( (temp&0x4) == 0 )
 3389              		.loc 1 96 0
 3390 0298 11305BE5 		ldrb	r3, [fp, #-17]	@ zero_extendqisi2
 3391 029c 043003E2 		and	r3, r3, #4
 3392 02a0 000053E3 		cmp	r3, #0
 3393 02a4 0200001A 		bne	.L24
  97:../keyboard.c **** 			value = 1;
 3394              		.loc 1 97 0
 3395 02a8 0130A0E3 		mov	r3, #1
 3396 02ac 10300BE5 		str	r3, [fp, #-16]
 3397 02b0 050000EA 		b	.L22
 3398              	.L24:
  98:../keyboard.c **** 		else if( (temp&0x8) == 0 )
 3399              		.loc 1 98 0
 3400 02b4 11305BE5 		ldrb	r3, [fp, #-17]	@ zero_extendqisi2
 3401 02b8 083003E2 		and	r3, r3, #8
 3402 02bc 000053E3 		cmp	r3, #0
 3403 02c0 0100001A 		bne	.L22
  99:../keyboard.c **** 			value = 0;
 3404              		.loc 1 99 0
 3405 02c4 0030A0E3 		mov	r3, #0
 3406 02c8 10300BE5 		str	r3, [fp, #-16]
 3407              	.L22:
 100:../keyboard.c **** 		return value;
 3408              		.loc 1 100 0
 3409 02cc 10301BE5 		ldr	r3, [fp, #-16]
 3410 02d0 720000EA 		b	.L25
 3411              	.L20:
 101:../keyboard.c **** 	}
 102:../keyboard.c **** 	/* linea 2 */
 103:../keyboard.c **** 	temp = *(keyboard_base+0xfb);
 3412              		.loc 1 103 0
 3413 02d4 D4319FE5 		ldr	r3, .L41
 3414 02d8 003093E5 		ldr	r3, [r3, #0]
 3415 02dc FB3083E2 		add	r3, r3, #251
 3416 02e0 0030D3E5 		ldrb	r3, [r3, #0]
 3417 02e4 11304BE5 		strb	r3, [fp, #-17]
 104:../keyboard.c **** 	if(( temp & KEY_VALUE_MASK) != KEY_VALUE_MASK)
 3418              		.loc 1 104 0
 3419 02e8 11305BE5 		ldrb	r3, [fp, #-17]	@ zero_extendqisi2
 3420 02ec 0F3003E2 		and	r3, r3, #15
 3421 02f0 0F0053E3 		cmp	r3, #15
 3422 02f4 1C00000A 		beq	.L26
 105:../keyboard.c **** 	{
 106:../keyboard.c **** 		if( (temp&0x1) == 0 )
 3423              		.loc 1 106 0
 3424 02f8 11305BE5 		ldrb	r3, [fp, #-17]	@ zero_extendqisi2
 3425 02fc 013003E2 		and	r3, r3, #1
 3426 0300 000053E3 		cmp	r3, #0
 3427 0304 0200001A 		bne	.L27
 107:../keyboard.c **** 			value = 7;
 3428              		.loc 1 107 0
 3429 0308 0730A0E3 		mov	r3, #7
 3430 030c 10300BE5 		str	r3, [fp, #-16]
 3431 0310 130000EA 		b	.L28
 3432              	.L27:
 108:../keyboard.c **** 		else if( (temp&0x2) == 0 )
 3433              		.loc 1 108 0
 3434 0314 11305BE5 		ldrb	r3, [fp, #-17]	@ zero_extendqisi2
 3435 0318 023003E2 		and	r3, r3, #2
 3436 031c 000053E3 		cmp	r3, #0
 3437 0320 0200001A 		bne	.L29
 109:../keyboard.c **** 			value = 6;
 3438              		.loc 1 109 0
 3439 0324 0630A0E3 		mov	r3, #6
 3440 0328 10300BE5 		str	r3, [fp, #-16]
 3441 032c 0C0000EA 		b	.L28
 3442              	.L29:
 110:../keyboard.c **** 		else if( (temp&0x4) == 0 )
 3443              		.loc 1 110 0
 3444 0330 11305BE5 		ldrb	r3, [fp, #-17]	@ zero_extendqisi2
 3445 0334 043003E2 		and	r3, r3, #4
 3446 0338 000053E3 		cmp	r3, #0
 3447 033c 0200001A 		bne	.L30
 111:../keyboard.c **** 			value = 5;
 3448              		.loc 1 111 0
 3449 0340 0530A0E3 		mov	r3, #5
 3450 0344 10300BE5 		str	r3, [fp, #-16]
 3451 0348 050000EA 		b	.L28
 3452              	.L30:
 112:../keyboard.c **** 		else if( (temp&0x8) == 0 )
 3453              		.loc 1 112 0
 3454 034c 11305BE5 		ldrb	r3, [fp, #-17]	@ zero_extendqisi2
 3455 0350 083003E2 		and	r3, r3, #8
 3456 0354 000053E3 		cmp	r3, #0
 3457 0358 0100001A 		bne	.L28
 113:../keyboard.c **** 			value = 4;
 3458              		.loc 1 113 0
 3459 035c 0430A0E3 		mov	r3, #4
 3460 0360 10300BE5 		str	r3, [fp, #-16]
 3461              	.L28:
 114:../keyboard.c **** 		return value;
 3462              		.loc 1 114 0
 3463 0364 10301BE5 		ldr	r3, [fp, #-16]
 3464 0368 4C0000EA 		b	.L25
 3465              	.L26:
 115:../keyboard.c **** 	}
 116:../keyboard.c **** 	/* linea 3 */
 117:../keyboard.c **** 	temp = *(keyboard_base+0xf7);
 3466              		.loc 1 117 0
 3467 036c 3C319FE5 		ldr	r3, .L41
 3468 0370 003093E5 		ldr	r3, [r3, #0]
 3469 0374 F73083E2 		add	r3, r3, #247
 3470 0378 0030D3E5 		ldrb	r3, [r3, #0]
 3471 037c 11304BE5 		strb	r3, [fp, #-17]
 118:../keyboard.c **** 	if(( temp & KEY_VALUE_MASK) != KEY_VALUE_MASK)
 3472              		.loc 1 118 0
 3473 0380 11305BE5 		ldrb	r3, [fp, #-17]	@ zero_extendqisi2
 3474 0384 0F3003E2 		and	r3, r3, #15
 3475 0388 0F0053E3 		cmp	r3, #15
 3476 038c 1C00000A 		beq	.L31
 119:../keyboard.c **** 	{
 120:../keyboard.c **** 		if( (temp&0x1) == 0 )
 3477              		.loc 1 120 0
 3478 0390 11305BE5 		ldrb	r3, [fp, #-17]	@ zero_extendqisi2
 3479 0394 013003E2 		and	r3, r3, #1
 3480 0398 000053E3 		cmp	r3, #0
 3481 039c 0200001A 		bne	.L32
 121:../keyboard.c **** 			value = 0xb;
 3482              		.loc 1 121 0
 3483 03a0 0B30A0E3 		mov	r3, #11
 3484 03a4 10300BE5 		str	r3, [fp, #-16]
 3485 03a8 130000EA 		b	.L33
 3486              	.L32:
 122:../keyboard.c **** 		else if( (temp&0x2) == 0 )
 3487              		.loc 1 122 0
 3488 03ac 11305BE5 		ldrb	r3, [fp, #-17]	@ zero_extendqisi2
 3489 03b0 023003E2 		and	r3, r3, #2
 3490 03b4 000053E3 		cmp	r3, #0
 3491 03b8 0200001A 		bne	.L34
 123:../keyboard.c **** 			value = 0xa;
 3492              		.loc 1 123 0
 3493 03bc 0A30A0E3 		mov	r3, #10
 3494 03c0 10300BE5 		str	r3, [fp, #-16]
 3495 03c4 0C0000EA 		b	.L33
 3496              	.L34:
 124:../keyboard.c **** 		else if( (temp&0x4) == 0 )
 3497              		.loc 1 124 0
 3498 03c8 11305BE5 		ldrb	r3, [fp, #-17]	@ zero_extendqisi2
 3499 03cc 043003E2 		and	r3, r3, #4
 3500 03d0 000053E3 		cmp	r3, #0
 3501 03d4 0200001A 		bne	.L35
 125:../keyboard.c **** 			value = 9;
 3502              		.loc 1 125 0
 3503 03d8 0930A0E3 		mov	r3, #9
 3504 03dc 10300BE5 		str	r3, [fp, #-16]
 3505 03e0 050000EA 		b	.L33
 3506              	.L35:
 126:../keyboard.c **** 		else if( (temp&0x8) == 0 )
 3507              		.loc 1 126 0
 3508 03e4 11305BE5 		ldrb	r3, [fp, #-17]	@ zero_extendqisi2
 3509 03e8 083003E2 		and	r3, r3, #8
 3510 03ec 000053E3 		cmp	r3, #0
 3511 03f0 0100001A 		bne	.L33
 127:../keyboard.c **** 			value = 8;
 3512              		.loc 1 127 0
 3513 03f4 0830A0E3 		mov	r3, #8
 3514 03f8 10300BE5 		str	r3, [fp, #-16]
 3515              	.L33:
 128:../keyboard.c **** 		return value;
 3516              		.loc 1 128 0
 3517 03fc 10301BE5 		ldr	r3, [fp, #-16]
 3518 0400 260000EA 		b	.L25
 3519              	.L31:
 129:../keyboard.c **** 	}
 130:../keyboard.c **** 	/* linea 4 */
 131:../keyboard.c **** 	temp = *(keyboard_base+0xef);
 3520              		.loc 1 131 0
 3521 0404 A4309FE5 		ldr	r3, .L41
 3522 0408 003093E5 		ldr	r3, [r3, #0]
 3523 040c EF3083E2 		add	r3, r3, #239
 3524 0410 0030D3E5 		ldrb	r3, [r3, #0]
 3525 0414 11304BE5 		strb	r3, [fp, #-17]
 132:../keyboard.c **** 	if(( temp & KEY_VALUE_MASK) != KEY_VALUE_MASK)
 3526              		.loc 1 132 0
 3527 0418 11305BE5 		ldrb	r3, [fp, #-17]	@ zero_extendqisi2
 3528 041c 0F3003E2 		and	r3, r3, #15
 3529 0420 0F0053E3 		cmp	r3, #15
 3530 0424 1C00000A 		beq	.L36
 133:../keyboard.c **** 	{
 134:../keyboard.c **** 		if( (temp&0x1) == 0 )
 3531              		.loc 1 134 0
 3532 0428 11305BE5 		ldrb	r3, [fp, #-17]	@ zero_extendqisi2
 3533 042c 013003E2 		and	r3, r3, #1
 3534 0430 000053E3 		cmp	r3, #0
 3535 0434 0200001A 		bne	.L37
 135:../keyboard.c **** 			value = 0xf;
 3536              		.loc 1 135 0
 3537 0438 0F30A0E3 		mov	r3, #15
 3538 043c 10300BE5 		str	r3, [fp, #-16]
 3539 0440 130000EA 		b	.L38
 3540              	.L37:
 136:../keyboard.c **** 		else if( (temp&0x2) == 0 )
 3541              		.loc 1 136 0
 3542 0444 11305BE5 		ldrb	r3, [fp, #-17]	@ zero_extendqisi2
 3543 0448 023003E2 		and	r3, r3, #2
 3544 044c 000053E3 		cmp	r3, #0
 3545 0450 0200001A 		bne	.L39
 137:../keyboard.c **** 			value = 0xe;
 3546              		.loc 1 137 0
 3547 0454 0E30A0E3 		mov	r3, #14
 3548 0458 10300BE5 		str	r3, [fp, #-16]
 3549 045c 0C0000EA 		b	.L38
 3550              	.L39:
 138:../keyboard.c **** 		else if( (temp&0x4) == 0 )
 3551              		.loc 1 138 0
 3552 0460 11305BE5 		ldrb	r3, [fp, #-17]	@ zero_extendqisi2
 3553 0464 043003E2 		and	r3, r3, #4
 3554 0468 000053E3 		cmp	r3, #0
 3555 046c 0200001A 		bne	.L40
 139:../keyboard.c **** 			value = 0xd;
 3556              		.loc 1 139 0
 3557 0470 0D30A0E3 		mov	r3, #13
 3558 0474 10300BE5 		str	r3, [fp, #-16]
 3559 0478 050000EA 		b	.L38
 3560              	.L40:
 140:../keyboard.c **** 		else if( (temp&0x8) == 0 )
 3561              		.loc 1 140 0
 3562 047c 11305BE5 		ldrb	r3, [fp, #-17]	@ zero_extendqisi2
 3563 0480 083003E2 		and	r3, r3, #8
 3564 0484 000053E3 		cmp	r3, #0
 3565 0488 0100001A 		bne	.L38
 141:../keyboard.c **** 			value = 0xc;
 3566              		.loc 1 141 0
 3567 048c 0C30A0E3 		mov	r3, #12
 3568 0490 10300BE5 		str	r3, [fp, #-16]
 3569              	.L38:
 142:../keyboard.c **** 		return value;
 3570              		.loc 1 142 0
 3571 0494 10301BE5 		ldr	r3, [fp, #-16]
 3572 0498 000000EA 		b	.L25
 3573              	.L36:
 143:../keyboard.c **** 	}
 144:../keyboard.c **** 	return -1;
 3574              		.loc 1 144 0
 3575 049c 0030E0E3 		mvn	r3, #0
 3576              	.L25:
 145:../keyboard.c **** }
 3577              		.loc 1 145 0
 3578 04a0 0300A0E1 		mov	r0, r3
 3579 04a4 0CD04BE2 		sub	sp, fp, #12
 3580 04a8 00689DE8 		ldmfd	sp, {fp, sp, lr}
 3581 04ac 1EFF2FE1 		bx	lr
 3582              	.L42:
 3583              		.align	2
 3584              	.L41:
 3585 04b0 00000000 		.word	keyboard_base
 3586              		.cfi_endproc
 3587              	.LFE4:
 3589              	.Letext0: