   1              		.cpu arm7tdmi
   2              		.fpu softvfp
   3              		.eabi_attribute 20, 1
   4              		.eabi_attribute 21, 1
   5              		.eabi_attribute 23, 3
   6              		.eabi_attribute 24, 1
   7              		.eabi_attribute 25, 1
   8              		.eabi_attribute 26, 1
   9              		.eabi_attribute 30, 6
  10              		.eabi_attribute 18, 4
  11              		.file	"timer.c"
  21              	.Ltext0:
  22              		.file 1 "../timer.c"
 1874              		.align	2
 1875              		.global	timer_ISR
 1877              	timer_ISR:
 1878              	.LFB0:
   1:../timer.c    **** /*********************************************************************************************
   2:../timer.c    **** * Fichero:		timer.c
   3:../timer.c    **** * Autor:		
   4:../timer.c    **** * Descrip:		funciones de control del timer0 del s3c44b0x
   5:../timer.c    **** * Version:	
   6:../timer.c    **** *********************************************************************************************/
   7:../timer.c    **** 
   8:../timer.c    **** /*--- ficheros de cabecera ---*/
   9:../timer.c    **** #include "44b.h"
  10:../timer.c    **** #include "44blib.h"
  11:../timer.c    **** 
  12:../timer.c    **** extern int resetsymbol;
  13:../timer.c    **** extern int symbol;
  14:../timer.c    ****  extern int pausa;
  15:../timer.c    **** 
  16:../timer.c    **** 
  17:../timer.c    **** //*--- declaracion de funciones ---*/
  18:../timer.c    **** void timer_ISR(void) __attribute__ ((interrupt ("IRQ")));
  19:../timer.c    **** void timer_init(void);
  20:../timer.c    **** 
  21:../timer.c    **** /*--- codigo de las funciones ---*/
  22:../timer.c    **** void timer_ISR(void)
  23:../timer.c    **** {  /*  TAREA 2a */
 1879              		.loc 1 23 0
 1880              		.cfi_startproc
 1881              		@ Interrupt Service Routine.
 1882              		@ args = 0, pretend = 0, frame = 0
 1883              		@ frame_needed = 1, uses_anonymous_args = 0
 1884 0000 04C02DE5 		str	ip, [sp, #-4]!
 1885 0004 0DC0A0E1 		mov	ip, sp
 1886              	.LCFI0:
 1887              		.cfi_def_cfa_register 12
 1888 0008 0FD82DE9 		stmfd	sp!, {r0, r1, r2, r3, fp, ip, lr, pc}
 1889 000c 04B04CE2 		sub	fp, ip, #4
 1890              		.cfi_offset 14, -8
 1891              		.cfi_offset 13, -12
 1892              		.cfi_offset 11, -16
 1893              		.cfi_offset 3, -20
 1894              		.cfi_offset 2, -24
 1895              		.cfi_offset 1, -28
 1896              		.cfi_offset 0, -32
 1897              	.LCFI1:
 1898              		.cfi_def_cfa 11, 4
  24:../timer.c    ****         /*Actualizar leds con cada int. del timer */
  25:../timer.c    **** 		if (resetsymbol == 1){
 1899              		.loc 1 25 0
 1900 0010 C0309FE5 		ldr	r3, .L5
 1901 0014 003093E5 		ldr	r3, [r3, #0]
 1902 0018 010053E3 		cmp	r3, #1
 1903 001c 0E00001A 		bne	.L2
  26:../timer.c    **** 				symbol = 15;	 /* actualizamos el contador a F */
 1904              		.loc 1 26 0
 1905 0020 B4309FE5 		ldr	r3, .L5+4
 1906 0024 0F20A0E3 		mov	r2, #15
 1907 0028 002083E5 		str	r2, [r3, #0]
  27:../timer.c    **** 				resetsymbol=0;
 1908              		.loc 1 27 0
 1909 002c A4309FE5 		ldr	r3, .L5
 1910 0030 0020A0E3 		mov	r2, #0
 1911 0034 002083E5 		str	r2, [r3, #0]
  28:../timer.c    **** 				pausa = 1;
 1912              		.loc 1 28 0
 1913 0038 A0309FE5 		ldr	r3, .L5+8
 1914 003c 0120A0E3 		mov	r2, #1
 1915 0040 002083E5 		str	r2, [r3, #0]
  29:../timer.c    **** 				rINTMSK |= 0x2000;
 1916              		.loc 1 29 0
 1917 0044 98309FE5 		ldr	r3, .L5+12
 1918 0048 94209FE5 		ldr	r2, .L5+12
 1919 004c 002092E5 		ldr	r2, [r2, #0]
 1920 0050 022A82E3 		orr	r2, r2, #8192
 1921 0054 002083E5 		str	r2, [r3, #0]
 1922 0058 100000EA 		b	.L3
 1923              	.L2:
  30:../timer.c    **** 		} else if (pausa == 0) {
 1924              		.loc 1 30 0
 1925 005c 7C309FE5 		ldr	r3, .L5+8
 1926 0060 003093E5 		ldr	r3, [r3, #0]
 1927 0064 000053E3 		cmp	r3, #0
 1928 0068 0C00001A 		bne	.L3
  31:../timer.c    **** 			if (symbol == 0)
 1929              		.loc 1 31 0
 1930 006c 68309FE5 		ldr	r3, .L5+4
 1931 0070 003093E5 		ldr	r3, [r3, #0]
 1932 0074 000053E3 		cmp	r3, #0
 1933 0078 0300001A 		bne	.L4
  32:../timer.c    **** 				symbol = 15;
 1934              		.loc 1 32 0
 1935 007c 58309FE5 		ldr	r3, .L5+4
 1936 0080 0F20A0E3 		mov	r2, #15
 1937 0084 002083E5 		str	r2, [r3, #0]
 1938 0088 040000EA 		b	.L3
 1939              	.L4:
  33:../timer.c    **** 			else
  34:../timer.c    **** 				symbol = symbol-1;	 /* actualiza el contador segun proceda */
 1940              		.loc 1 34 0
 1941 008c 48309FE5 		ldr	r3, .L5+4
 1942 0090 003093E5 		ldr	r3, [r3, #0]
 1943 0094 012043E2 		sub	r2, r3, #1
 1944 0098 3C309FE5 		ldr	r3, .L5+4
 1945 009c 002083E5 		str	r2, [r3, #0]
 1946              	.L3:
  35:../timer.c    **** 		}
  36:../timer.c    **** 		D8Led_symbol(symbol); 		     /* muestra el contador en el display */
 1947              		.loc 1 36 0
 1948 00a0 34309FE5 		ldr	r3, .L5+4
 1949 00a4 003093E5 		ldr	r3, [r3, #0]
 1950 00a8 0300A0E1 		mov	r0, r3
 1951 00ac FEFFFFEB 		bl	D8Led_symbol
  37:../timer.c    **** 		leds_switch(); 	/* intercambia los leds*/
 1952              		.loc 1 37 0
 1953 00b0 FEFFFFEB 		bl	leds_switch
  38:../timer.c    **** 	/* borrar bit en I_ISPC */
  39:../timer.c    **** 	rI_ISPC |= BIT_TIMER0;
 1954              		.loc 1 39 0
 1955 00b4 2C309FE5 		ldr	r3, .L5+16
 1956 00b8 28209FE5 		ldr	r2, .L5+16
 1957 00bc 002092E5 		ldr	r2, [r2, #0]
 1958 00c0 022A82E3 		orr	r2, r2, #8192
 1959 00c4 002083E5 		str	r2, [r3, #0]
  40:../timer.c    **** 	/*fin Tarea 2a*/
  41:../timer.c    **** 
  42:../timer.c    **** }
 1960              		.loc 1 42 0
 1961 00c8 1CD04BE2 		sub	sp, fp, #28
 1962 00cc 0F689DE8 		ldmfd	sp, {r0, r1, r2, r3, fp, sp, lr}
 1963 00d0 04C09DE4 		ldmfd	sp!, {ip}
 1964 00d4 04F05EE2 		subs	pc, lr, #4
 1965              	.L6:
 1966              		.align	2
 1967              	.L5:
 1968 00d8 00000000 		.word	resetsymbol
 1969 00dc 00000000 		.word	symbol
 1970 00e0 00000000 		.word	pausa
 1971 00e4 0C00E001 		.word	31457292
 1972 00e8 2400E001 		.word	31457316
 1973              		.cfi_endproc
 1974              	.LFE0:
 1976              	.Letext0: